; Function Attrs: nounwind uwtable
define noundef ptr @zend_objects_new(ptr noundef %0) local_unnamed_addr #0 {
  %2 = getelementptr inbounds i8, ptr %0, i64 32
  %3 = load i32, ptr %2, align 8
  %4 = getelementptr inbounds i8, ptr %0, i64 28
  %5 = load i32, ptr %4, align 4
  %6 = lshr i32 %5, 11
  %.lobit = and i32 %6, 1
  %7 = xor i32 %.lobit, 1
  %8 = sub nsw i32 %3, %7
  %9 = sext i32 %8 to i64
  %10 = shl nsw i64 %9, 4
  %11 = add nsw i64 %10, 56
  %12 = tail call noalias ptr @_emalloc(i64 noundef %11) #8
  store i32 1, ptr %12, align 4
  %13 = getelementptr inbounds i8, ptr %12, i64 4
  store i32 8, ptr %13, align 4
  %14 = getelementptr inbounds i8, ptr %12, i64 16
  store ptr %0, ptr %14, align 8
  %15 = getelementptr inbounds i8, ptr %0, i64 360
  %16 = load ptr, ptr %15, align 8
  %17 = getelementptr inbounds i8, ptr %12, i64 24
  store ptr %16, ptr %17, align 8
  %18 = getelementptr inbounds i8, ptr %12, i64 32
  store ptr null, ptr %18, align 8
  tail call void @zend_objects_store_put(ptr noundef nonnull %12) #6
  %19 = load i32, ptr %4, align 4
  %20 = and i32 %19, 2048
  %.not = icmp eq i32 %20, 0
  br i1 %.not, label %30, label %21

21:                                               ; preds = %1
  %22 = getelementptr inbounds i8, ptr %12, i64 40
  %23 = load ptr, ptr %14, align 8
  %24 = getelementptr inbounds i8, ptr %23, i64 32
  %25 = load i32, ptr %24, align 8
  %26 = sext i32 %25 to i64
  %27 = getelementptr inbounds %struct._zval_struct, ptr %22, i64 %26
  %28 = getelementptr inbounds i8, ptr %27, i64 8
  store i32 0, ptr %28, align 8
  %29 = getelementptr inbounds i8, ptr %27, i64 12
  store i32 0, ptr %29, align 4
  br label %30

30:                                               ; preds = %21, %1
  ret ptr %12
}